; Function Attrs: mustprogress nofree norecurse nosync nounwind willreturn memory(read, inaccessiblemem: none) uwtable
define noundef zeroext i1 @_ZNK32pxrInternal_v0_24__pxrReserved__29HdsiPrimTypePruningSceneIndex10_PruneTypeERKNS_7TfTokenE(ptr nocapture noundef nonnull readonly align 8 dereferenceable(240) %0, ptr nocapture noundef nonnull readonly align 8 dereferenceable(8) %1) local_unnamed_addr #5 align 2 personality ptr @__gxx_personality_v0 {
  %3 = getelementptr inbounds nuw i8, ptr %0, i64 152
  %4 = load ptr, ptr %3, align 8
  %5 = getelementptr inbounds i8, ptr %0, i64 160
  %6 = load ptr, ptr %5, align 8
  %.not = icmp eq ptr %4, %6
  br i1 %.not, label %._crit_edge, label %.lr.ph

.lr.ph:                                           ; preds = %2
  %7 = load ptr, ptr %1, align 8
  %8 = ptrtoint ptr %7 to i64
  %9 = and i64 %8, -8
  %10 = inttoptr i64 %9 to ptr
  br label %11

11:                                               ; preds = %11, %.lr.ph
  %.sroa.06.09 = phi ptr [ %4, %.lr.ph ], [ %17, %11 ]
  %12 = load ptr, ptr %.sroa.06.09, align 8
  %13 = ptrtoint ptr %12 to i64
  %14 = and i64 %13, -8
  %15 = inttoptr i64 %14 to ptr
  %16 = icmp eq ptr %10, %15
  %17 = getelementptr inbounds i8, ptr %.sroa.06.09, i64 8
  %.not12 = icmp eq ptr %17, %6
  %or.cond = select i1 %16, i1 true, i1 %.not12
  br i1 %or.cond, label %._crit_edge, label %11

._crit_edge:                                      ; preds = %11, %2
  %.lcssa = phi i1 [ false, %2 ], [ %16, %11 ]
  ret i1 %.lcssa
}